target datalayout = "e-m:e-p270:32:32-p271:32:32-p272:64:64-i64:64-i128:128-f80:128-n8:16:32:64-S128"
target triple = "x86_64-pc-linux-gnu"

%struct.PJconsts = type { ptr, ptr, ptr, ptr, ptr, ptr, ptr, ptr, ptr, ptr, ptr, ptr, i32, ptr, ptr, ptr, ptr, ptr, ptr, ptr, ptr, double, double, double, double, double, double, double, double, double, double, double, double, double, double, double, double, double, double, double, double, double, double, i32, i32, i32, i32, i32, i32, i32, i32, i32, i32, i32, ptr, ptr, ptr, ptr, ptr, ptr, double, double, double, double, double, double, double, double, double, double, double, i32, [7 x double], i32, ptr, ptr, double, double, i32, [4 x i8], %"class.std::shared_ptr", i8, double, i8, %"class.std::__cxx11::basic_string", %"class.std::__cxx11::basic_string", %"class.std::__cxx11::basic_string", i8, %"class.std::vector", i32, %"class.std::vector.3", i32, i8, i8, i8, ptr }
%"class.std::shared_ptr" = type { %"class.std::__shared_ptr" }
%"class.std::__shared_ptr" = type { ptr, %"class.std::__shared_count" }
%"class.std::__shared_count" = type { ptr }
%"class.std::__cxx11::basic_string" = type { %"struct.std::__cxx11::basic_string<char>::_Alloc_hider", i64, %union.anon }
%"struct.std::__cxx11::basic_string<char>::_Alloc_hider" = type { ptr }
%union.anon = type { i64, [8 x i8] }
%"class.std::vector" = type { %"struct.std::_Vector_base" }
%"struct.std::_Vector_base" = type { %"struct.std::_Vector_base<osgeo::proj::operation::GridDescription, std::allocator<osgeo::proj::operation::GridDescription>>::_Vector_impl" }
%"struct.std::_Vector_base<osgeo::proj::operation::GridDescription, std::allocator<osgeo::proj::operation::GridDescription>>::_Vector_impl" = type { %"struct.std::_Vector_base<osgeo::proj::operation::GridDescription, std::allocator<osgeo::proj::operation::GridDescription>>::_Vector_impl_data" }
%"struct.std::_Vector_base<osgeo::proj::operation::GridDescription, std::allocator<osgeo::proj::operation::GridDescription>>::_Vector_impl_data" = type { ptr, ptr, ptr }
%"class.std::vector.3" = type { %"struct.std::_Vector_base.4" }
%"struct.std::_Vector_base.4" = type { %"struct.std::_Vector_base<PJCoordOperation, std::allocator<PJCoordOperation>>::_Vector_impl" }
%"struct.std::_Vector_base<PJCoordOperation, std::allocator<PJCoordOperation>>::_Vector_impl" = type { %"struct.std::_Vector_base<PJCoordOperation, std::allocator<PJCoordOperation>>::_Vector_impl_data" }
%"struct.std::_Vector_base<PJCoordOperation, std::allocator<PJCoordOperation>>::_Vector_impl_data" = type { ptr, ptr, ptr }
%struct.PJ_LP = type { double, double }
%struct.PJ_XY = type { double, double }

; Function Attrs: mustprogress uwtable
define internal { double, double } @_ZL19patterson_s_inverse5PJ_XYP8PJconsts(double %0, double %1, ptr noundef %2) #0 {
  %4 = alloca %struct.PJ_LP, align 8
  %5 = alloca %struct.PJ_XY, align 8
  %6 = alloca ptr, align 8
  %7 = alloca double, align 8
  %8 = alloca i32, align 4
  %9 = alloca double, align 8
  %10 = alloca double, align 8
  %11 = alloca double, align 8
  %12 = alloca double, align 8
  %13 = alloca i32, align 4
  %14 = getelementptr inbounds nuw { double, double }, ptr %5, i32 0, i32 0
  store double %0, ptr %14, align 8
  %15 = getelementptr inbounds nuw { double, double }, ptr %5, i32 0, i32 1
  store double %1, ptr %15, align 8
  store ptr %2, ptr %6, align 8, !tbaa !3
  call void @llvm.memset.p0.i64(ptr align 8 %4, i8 0, i64 16, i1 false)
  call void @llvm.lifetime.start.p0(i64 8, ptr %7) #6
  call void @llvm.lifetime.start.p0(i64 4, ptr %8) #6
  %16 = getelementptr inbounds nuw %struct.PJ_XY, ptr %5, i32 0, i32 1
  %17 = load double, ptr %16, align 8, !tbaa !44
  store double %17, ptr %7, align 8, !tbaa !46
  %18 = getelementptr inbounds nuw %struct.PJ_XY, ptr %5, i32 0, i32 1
  %19 = load double, ptr %18, align 8, !tbaa !44
  %20 = fcmp ogt double %19, 0x3FFCA759DC8CAAC0
  br i1 %20, label %21, label %23

21:                                               ; preds = %3
  %22 = getelementptr inbounds nuw %struct.PJ_XY, ptr %5, i32 0, i32 1
  store double 0x3FFCA759DC8CAAC0, ptr %22, align 8, !tbaa !44
  br label %30

23:                                               ; preds = %3
  %24 = getelementptr inbounds nuw %struct.PJ_XY, ptr %5, i32 0, i32 1
  %25 = load double, ptr %24, align 8, !tbaa !44
  %26 = fcmp olt double %25, 0xBFFCA759DC8CAAC0
  br i1 %26, label %27, label %29

27:                                               ; preds = %23
  %28 = getelementptr inbounds nuw %struct.PJ_XY, ptr %5, i32 0, i32 1
  store double 0xBFFCA759DC8CAAC0, ptr %28, align 8, !tbaa !44
  br label %29

29:                                               ; preds = %27, %23
  br label %30

30:                                               ; preds = %29, %21
  store i32 100, ptr %8, align 4, !tbaa !47
  br label %31

31:                                               ; preds = %73, %30
  %32 = load i32, ptr %8, align 4, !tbaa !47
  %33 = icmp ne i32 %32, 0
  br i1 %33, label %34, label %76

34:                                               ; preds = %31
  call void @llvm.lifetime.start.p0(i64 8, ptr %9) #6
  %35 = load double, ptr %7, align 8, !tbaa !46
  %36 = load double, ptr %7, align 8, !tbaa !46
  %37 = fmul double %35, %36
  store double %37, ptr %9, align 8, !tbaa !46
  call void @llvm.lifetime.start.p0(i64 8, ptr %10) #6
  %38 = load double, ptr %7, align 8, !tbaa !46
  %39 = load double, ptr %9, align 8, !tbaa !46
  %40 = load double, ptr %9, align 8, !tbaa !46
  %41 = fmul double %39, %40
  %42 = load double, ptr %9, align 8, !tbaa !46
  %43 = load double, ptr %9, align 8, !tbaa !46
  %44 = call double @llvm.fmuladd.f64(double 2.406000e-02, double %43, double -1.449900e-01)
  %45 = call double @llvm.fmuladd.f64(double %42, double %44, double 2.318500e-01)
  %46 = call double @llvm.fmuladd.f64(double %41, double %45, double 1.014800e+00)
  %47 = getelementptr inbounds nuw %struct.PJ_XY, ptr %5, i32 0, i32 1
  %48 = load double, ptr %47, align 8, !tbaa !44
  %49 = fneg double %48
  %50 = call double @llvm.fmuladd.f64(double %38, double %46, double %49)
  store double %50, ptr %10, align 8, !tbaa !46
  call void @llvm.lifetime.start.p0(i64 8, ptr %11) #6
  %51 = load double, ptr %9, align 8, !tbaa !46
  %52 = load double, ptr %9, align 8, !tbaa !46
  %53 = fmul double %51, %52
  %54 = load double, ptr %9, align 8, !tbaa !46
  %55 = load double, ptr %9, align 8, !tbaa !46
  %56 = call double @llvm.fmuladd.f64(double 2.165400e-01, double %55, double -1.014930e+00)
  %57 = call double @llvm.fmuladd.f64(double %54, double %56, double 0x3FF28C49BA5E3540)
  %58 = call double @llvm.fmuladd.f64(double %53, double %57, double 1.014800e+00)
  store double %58, ptr %11, align 8, !tbaa !46
  call void @llvm.lifetime.start.p0(i64 8, ptr %12) #6
  %59 = load double, ptr %10, align 8, !tbaa !46
  %60 = load double, ptr %11, align 8, !tbaa !46
  %61 = fdiv double %59, %60
  store double %61, ptr %12, align 8, !tbaa !46
  %62 = load double, ptr %12, align 8, !tbaa !46
  %63 = load double, ptr %7, align 8, !tbaa !46
  %64 = fsub double %63, %62
  store double %64, ptr %7, align 8, !tbaa !46
  %65 = load double, ptr %12, align 8, !tbaa !46
  %66 = call double @llvm.fabs.f64(double %65)
  %67 = fcmp olt double %66, 0x3DA5FD7FE1796495
  br i1 %67, label %68, label %69

68:                                               ; preds = %34
  store i32 2, ptr %13, align 4
  br label %70

69:                                               ; preds = %34
  store i32 0, ptr %13, align 4
  br label %70

70:                                               ; preds = %69, %68
  call void @llvm.lifetime.end.p0(i64 8, ptr %12) #6
  call void @llvm.lifetime.end.p0(i64 8, ptr %11) #6
  call void @llvm.lifetime.end.p0(i64 8, ptr %10) #6
  call void @llvm.lifetime.end.p0(i64 8, ptr %9) #6
  %71 = load i32, ptr %13, align 4
  switch i32 %71, label %90 [
    i32 0, label %72
    i32 2, label %76
  ]

72:                                               ; preds = %70
  br label %73

73:                                               ; preds = %72
  %74 = load i32, ptr %8, align 4, !tbaa !47
  %75 = add nsw i32 %74, -1
  store i32 %75, ptr %8, align 4, !tbaa !47
  br label %31, !llvm.loop !48

76:                                               ; preds = %70, %31
  %77 = load i32, ptr %8, align 4, !tbaa !47
  %78 = icmp eq i32 %77, 0
  br i1 %78, label %79, label %83

79:                                               ; preds = %76
  %80 = load ptr, ptr %6, align 8, !tbaa !3
  %81 = getelementptr inbounds nuw %struct.PJconsts, ptr %80, i32 0, i32 0
  %82 = load ptr, ptr %81, align 8, !tbaa !50
  call void @_Z22proj_context_errno_setP6pj_ctxi(ptr noundef %82, i32 noundef 2050)
  br label %83

83:                                               ; preds = %79, %76
  %84 = load double, ptr %7, align 8, !tbaa !46
  %85 = getelementptr inbounds nuw %struct.PJ_LP, ptr %4, i32 0, i32 1
  store double %84, ptr %85, align 8, !tbaa !51
  %86 = getelementptr inbounds nuw %struct.PJ_XY, ptr %5, i32 0, i32 0
  %87 = load double, ptr %86, align 8, !tbaa !53
  %88 = getelementptr inbounds nuw %struct.PJ_LP, ptr %4, i32 0, i32 0
  store double %87, ptr %88, align 8, !tbaa !54
  store i32 1, ptr %13, align 4
  call void @llvm.lifetime.end.p0(i64 4, ptr %8) #6
  call void @llvm.lifetime.end.p0(i64 8, ptr %7) #6
  %89 = load { double, double }, ptr %4, align 8
  ret { double, double } %89

90:                                               ; preds = %70
  unreachable
}