; Function Attrs: mustprogress uwtable
define internal { double, double } @_ZL19patterson_s_inverse5PJ_XYP8PJconsts(double %0, double %1, ptr noundef readonly captures(none) %2) #0 {
  %4 = fcmp ogt double %1, 0x3FFCA759DC8CAAC0
  br i1 %4, label %8, label %5

5:                                                ; preds = %3
  %6 = fcmp olt double %1, 0xBFFCA759DC8CAAC0
  br i1 %6, label %7, label %8

7:                                                ; preds = %5
  br label %8

8:                                                ; preds = %3, %5, %7
  %.sroa.2.0 = phi double [ 0xBFFCA759DC8CAAC0, %7 ], [ %1, %5 ], [ 0x3FFCA759DC8CAAC0, %3 ]
  %9 = fneg double %.sroa.2.0
  br label %12

10:                                               ; preds = %12
  %11 = add nsw i32 %.02632, -1
  %.not = icmp eq i32 %11, 0
  br i1 %.not, label %26, label %12, !llvm.loop !43

12:                                               ; preds = %8, %10
  %.02533 = phi double [ %1, %8 ], [ %23, %10 ]
  %.02632 = phi i32 [ 100, %8 ], [ %11, %10 ]
  %13 = fmul double %.02533, %.02533
  %14 = fmul double %13, %13
  %15 = tail call double @llvm.fmuladd.f64(double %13, double 2.406000e-02, double -1.449900e-01)
  %16 = tail call double @llvm.fmuladd.f64(double %13, double %15, double 2.318500e-01)
  %17 = tail call double @llvm.fmuladd.f64(double %14, double %16, double 1.014800e+00)
  %18 = tail call double @llvm.fmuladd.f64(double %.02533, double %17, double %9)
  %19 = tail call double @llvm.fmuladd.f64(double %13, double 2.165400e-01, double -1.014930e+00)
  %20 = tail call double @llvm.fmuladd.f64(double %13, double %19, double 0x3FF28C49BA5E3540)
  %21 = tail call double @llvm.fmuladd.f64(double %14, double %20, double 1.014800e+00)
  %22 = fdiv double %18, %21
  %23 = fsub double %.02533, %22
  %24 = tail call double @llvm.fabs.f64(double %22)
  %25 = fcmp olt double %24, 0x3DA5FD7FE1796495
  br i1 %25, label %.loopexit, label %10

26:                                               ; preds = %10
  %27 = load ptr, ptr %2, align 8, !tbaa !45
  tail call void @_Z22proj_context_errno_setP6pj_ctxi(ptr noundef %27, i32 noundef 2050)
  br label %.loopexit

.loopexit:                                        ; preds = %12, %26
  %.fca.0.insert = insertvalue { double, double } poison, double %0, 0
  %.fca.1.insert = insertvalue { double, double } %.fca.0.insert, double %23, 1
  ret { double, double } %.fca.1.insert
}